target datalayout = "e-m:e-p270:32:32-p271:32:32-p272:64:64-i64:64-i128:128-f80:128-n8:16:32:64-S128"
target triple = "x86_64-unknown-linux-gnu"

%"struct.std::_Rb_tree_header" = type { %"struct.std::_Rb_tree_node_base", i64 }
%"struct.std::_Rb_tree_node_base" = type { i32, ptr, ptr, ptr }
%"class.std::map.79" = type { %"class.std::_Rb_tree.80" }
%"class.std::_Rb_tree.80" = type { %"struct.std::_Rb_tree<grpc_core::XdsClient::ResourceWatcherInterface *, std::pair<grpc_core::XdsClient::ResourceWatcherInterface *const, grpc_core::RefCountedPtr<grpc_core::XdsClient::ResourceWatcherInterface>>, std::_Select1st<std::pair<grpc_core::XdsClient::ResourceWatcherInterface *const, grpc_core::RefCountedPtr<grpc_core::XdsClient::ResourceWatcherInterface>>>, std::less<grpc_core::XdsClient::ResourceWatcherInterface *>>::_Rb_tree_impl" }
%"struct.std::_Rb_tree<grpc_core::XdsClient::ResourceWatcherInterface *, std::pair<grpc_core::XdsClient::ResourceWatcherInterface *const, grpc_core::RefCountedPtr<grpc_core::XdsClient::ResourceWatcherInterface>>, std::_Select1st<std::pair<grpc_core::XdsClient::ResourceWatcherInterface *const, grpc_core::RefCountedPtr<grpc_core::XdsClient::ResourceWatcherInterface>>>, std::less<grpc_core::XdsClient::ResourceWatcherInterface *>>::_Rb_tree_impl" = type { %"struct.std::_Rb_tree_key_compare.84", %"struct.std::_Rb_tree_header" }
%"struct.std::_Rb_tree_key_compare.84" = type { %"struct.std::less.85" }
%"struct.std::less.85" = type { i8 }
%"struct.std::_Rb_tree_const_iterator.154" = type { ptr }
%"struct.std::pair.155" = type { ptr, %"class.grpc_core::RefCountedPtr.157" }
%"class.grpc_core::RefCountedPtr.157" = type { ptr }
%class.anon.377 = type { %"class.std::map.79" }
%"struct.std::_Rb_tree_node.409" = type { %"struct.std::_Rb_tree_node_base", %"struct.__gnu_cxx::__aligned_membuf.410" }
%"struct.__gnu_cxx::__aligned_membuf.410" = type { [16 x i8] }

; Function Attrs: mustprogress nounwind uwtable
define linkonce_odr noundef ptr @_ZNK9__gnu_cxx16__aligned_membufISt4pairIKPN9grpc_core9XdsClient24ResourceWatcherInterfaceENS2_13RefCountedPtrIS4_EEEE7_M_addrEv(ptr noundef nonnull align 8 dereferenceable(16) %this) #5 comdat align 2 {
entry:
  %this.addr = alloca ptr, align 8
  store ptr %this, ptr %this.addr, align 8
  %this1 = load ptr, ptr %this.addr, align 8
  %_M_storage = getelementptr inbounds %"struct.__gnu_cxx::__aligned_membuf.410", ptr %this1, i32 0, i32 0
  ret ptr %_M_storage
}

; Function Attrs: mustprogress nounwind uwtable
define linkonce_odr noundef ptr @_ZNK9__gnu_cxx16__aligned_membufISt4pairIKPN9grpc_core9XdsClient24ResourceWatcherInterfaceENS2_13RefCountedPtrIS4_EEEE6_M_ptrEv(ptr noundef nonnull align 8 dereferenceable(16) %this) #5 comdat align 2 {
entry:
  %this.addr = alloca ptr, align 8
  store ptr %this, ptr %this.addr, align 8
  %this1 = load ptr, ptr %this.addr, align 8
  %call = call noundef ptr @_ZNK9__gnu_cxx16__aligned_membufISt4pairIKPN9grpc_core9XdsClient24ResourceWatcherInterfaceENS2_13RefCountedPtrIS4_EEEE7_M_addrEv(ptr noundef nonnull align 8 dereferenceable(16) %this1) #3
  ret ptr %call
}

; Function Attrs: mustprogress nounwind uwtable
define linkonce_odr void @_ZNSt23_Rb_tree_const_iteratorISt4pairIKPN9grpc_core9XdsClient24ResourceWatcherInterfaceENS1_13RefCountedPtrIS3_EEEEC2EPKSt18_Rb_tree_node_base(ptr noundef nonnull align 8 dereferenceable(8) %this, ptr noundef %__x) unnamed_addr #5 comdat align 2 {
entry:
  %this.addr = alloca ptr, align 8
  %__x.addr = alloca ptr, align 8
  store ptr %this, ptr %this.addr, align 8
  store ptr %__x, ptr %__x.addr, align 8
  %this1 = load ptr, ptr %this.addr, align 8
  %_M_node = getelementptr inbounds %"struct.std::_Rb_tree_const_iterator.154", ptr %this1, i32 0, i32 0
  %0 = load ptr, ptr %__x.addr, align 8
  store ptr %0, ptr %_M_node, align 8
  ret void
}

; Function Attrs: noreturn nounwind uwtable
define linkonce_odr hidden void @__clang_call_terminate(ptr noundef %0) #7 comdat {
  %2 = call ptr @__cxa_begin_catch(ptr %0) #3
  call void @_ZSt9terminatev() #18
  unreachable
}

; Function Attrs: mustprogress nounwind uwtable
define linkonce_odr noundef ptr @_ZNKSt13_Rb_tree_nodeISt4pairIKPN9grpc_core9XdsClient24ResourceWatcherInterfaceENS1_13RefCountedPtrIS3_EEEE9_M_valptrEv(ptr noundef nonnull align 8 dereferenceable(48) %this) #5 comdat align 2 {
entry:
  %this.addr = alloca ptr, align 8
  store ptr %this, ptr %this.addr, align 8
  %this1 = load ptr, ptr %this.addr, align 8
  %_M_storage = getelementptr inbounds %"struct.std::_Rb_tree_node.409", ptr %this1, i32 0, i32 1
  %call = call noundef ptr @_ZNK9__gnu_cxx16__aligned_membufISt4pairIKPN9grpc_core9XdsClient24ResourceWatcherInterfaceENS2_13RefCountedPtrIS4_EEEE6_M_ptrEv(ptr noundef nonnull align 8 dereferenceable(16) %_M_storage) #3
  ret ptr %call
}

; Function Attrs: mustprogress nounwind uwtable
define linkonce_odr ptr @_ZNKSt8_Rb_treeIPN9grpc_core9XdsClient24ResourceWatcherInterfaceESt4pairIKS3_NS0_13RefCountedPtrIS2_EEESt10_Select1stIS8_ESt4lessIS3_ESaIS8_EE3endEv(ptr noundef nonnull align 8 dereferenceable(48) %this) #5 comdat align 2 {
entry:
  %retval = alloca %"struct.std::_Rb_tree_const_iterator.154", align 8
  %this.addr = alloca ptr, align 8
  store ptr %this, ptr %this.addr, align 8
  %this1 = load ptr, ptr %this.addr, align 8
  %_M_impl = getelementptr inbounds %"class.std::_Rb_tree.80", ptr %this1, i32 0, i32 0
  %add.ptr = getelementptr inbounds i8, ptr %_M_impl, i64 8
  %_M_header = getelementptr inbounds %"struct.std::_Rb_tree_header", ptr %add.ptr, i32 0, i32 0
  call void @_ZNSt23_Rb_tree_const_iteratorISt4pairIKPN9grpc_core9XdsClient24ResourceWatcherInterfaceENS1_13RefCountedPtrIS3_EEEEC2EPKSt18_Rb_tree_node_base(ptr noundef nonnull align 8 dereferenceable(8) %retval, ptr noundef %_M_header) #3
  %coerce.dive = getelementptr inbounds %"struct.std::_Rb_tree_const_iterator.154", ptr %retval, i32 0, i32 0
  %0 = load ptr, ptr %coerce.dive, align 8
  ret ptr %0
}

; Function Attrs: mustprogress nounwind uwtable
define linkonce_odr ptr @_ZNKSt8_Rb_treeIPN9grpc_core9XdsClient24ResourceWatcherInterfaceESt4pairIKS3_NS0_13RefCountedPtrIS2_EEESt10_Select1stIS8_ESt4lessIS3_ESaIS8_EE5beginEv(ptr noundef nonnull align 8 dereferenceable(48) %this) #5 comdat align 2 {
entry:
  %retval = alloca %"struct.std::_Rb_tree_const_iterator.154", align 8
  %this.addr = alloca ptr, align 8
  store ptr %this, ptr %this.addr, align 8
  %this1 = load ptr, ptr %this.addr, align 8
  %_M_impl = getelementptr inbounds %"class.std::_Rb_tree.80", ptr %this1, i32 0, i32 0
  %add.ptr = getelementptr inbounds i8, ptr %_M_impl, i64 8
  %_M_header = getelementptr inbounds %"struct.std::_Rb_tree_header", ptr %add.ptr, i32 0, i32 0
  %_M_left = getelementptr inbounds %"struct.std::_Rb_tree_node_base", ptr %_M_header, i32 0, i32 2
  %0 = load ptr, ptr %_M_left, align 8
  call void @_ZNSt23_Rb_tree_const_iteratorISt4pairIKPN9grpc_core9XdsClient24ResourceWatcherInterfaceENS1_13RefCountedPtrIS3_EEEEC2EPKSt18_Rb_tree_node_base(ptr noundef nonnull align 8 dereferenceable(8) %retval, ptr noundef %0) #3
  %coerce.dive = getelementptr inbounds %"struct.std::_Rb_tree_const_iterator.154", ptr %retval, i32 0, i32 0
  %1 = load ptr, ptr %coerce.dive, align 8
  ret ptr %1
}

; Function Attrs: mustprogress nounwind uwtable
define linkonce_odr noundef nonnull align 8 dereferenceable(8) ptr @_ZNSt23_Rb_tree_const_iteratorISt4pairIKPN9grpc_core9XdsClient24ResourceWatcherInterfaceENS1_13RefCountedPtrIS3_EEEEppEv(ptr noundef nonnull align 8 dereferenceable(8) %this) #5 comdat align 2 {
entry:
  %this.addr = alloca ptr, align 8
  store ptr %this, ptr %this.addr, align 8
  %this1 = load ptr, ptr %this.addr, align 8
  %_M_node = getelementptr inbounds %"struct.std::_Rb_tree_const_iterator.154", ptr %this1, i32 0, i32 0
  %0 = load ptr, ptr %_M_node, align 8
  %call = call noundef ptr @_ZSt18_Rb_tree_incrementPKSt18_Rb_tree_node_base(ptr noundef %0) #21
  %_M_node2 = getelementptr inbounds %"struct.std::_Rb_tree_const_iterator.154", ptr %this1, i32 0, i32 0
  store ptr %call, ptr %_M_node2, align 8
  ret ptr %this1
}

; Function Attrs: mustprogress nounwind uwtable
define linkonce_odr noundef nonnull align 8 dereferenceable(16) ptr @_ZNKSt23_Rb_tree_const_iteratorISt4pairIKPN9grpc_core9XdsClient24ResourceWatcherInterfaceENS1_13RefCountedPtrIS3_EEEEdeEv(ptr noundef nonnull align 8 dereferenceable(8) %this) #5 comdat align 2 personality ptr @__gxx_personality_v0 {
entry:
  %this.addr = alloca ptr, align 8
  store ptr %this, ptr %this.addr, align 8
  %this1 = load ptr, ptr %this.addr, align 8
  %_M_node = getelementptr inbounds %"struct.std::_Rb_tree_const_iterator.154", ptr %this1, i32 0, i32 0
  %0 = load ptr, ptr %_M_node, align 8
  %call = invoke noundef ptr @_ZNKSt13_Rb_tree_nodeISt4pairIKPN9grpc_core9XdsClient24ResourceWatcherInterfaceENS1_13RefCountedPtrIS3_EEEE9_M_valptrEv(ptr noundef nonnull align 8 dereferenceable(48) %0)
          to label %invoke.cont unwind label %terminate.lpad

invoke.cont:                                      ; preds = %entry
  ret ptr %call

terminate.lpad:                                   ; preds = %entry
  %1 = landingpad { ptr, i32 }
          catch ptr null
  %2 = extractvalue { ptr, i32 } %1, 0
  call void @__clang_call_terminate(ptr %2) #18
  unreachable
}

; Function Attrs: mustprogress nounwind uwtable
define linkonce_odr noundef zeroext i1 @_ZStneRKSt23_Rb_tree_const_iteratorISt4pairIKPN9grpc_core9XdsClient24ResourceWatcherInterfaceENS1_13RefCountedPtrIS3_EEEESB_(ptr noundef nonnull align 8 dereferenceable(8) %__x, ptr noundef nonnull align 8 dereferenceable(8) %__y) #5 comdat {
entry:
  %__x.addr = alloca ptr, align 8
  %__y.addr = alloca ptr, align 8
  store ptr %__x, ptr %__x.addr, align 8
  store ptr %__y, ptr %__y.addr, align 8
  %0 = load ptr, ptr %__x.addr, align 8
  %_M_node = getelementptr inbounds %"struct.std::_Rb_tree_const_iterator.154", ptr %0, i32 0, i32 0
  %1 = load ptr, ptr %_M_node, align 8
  %2 = load ptr, ptr %__y.addr, align 8
  %_M_node1 = getelementptr inbounds %"struct.std::_Rb_tree_const_iterator.154", ptr %2, i32 0, i32 0
  %3 = load ptr, ptr %_M_node1, align 8
  %cmp = icmp ne ptr %1, %3
  ret i1 %cmp
}

; Function Attrs: mustprogress nounwind uwtable
define linkonce_odr ptr @_ZNKSt3mapIPN9grpc_core9XdsClient24ResourceWatcherInterfaceENS0_13RefCountedPtrIS2_EESt4lessIS3_ESaISt4pairIKS3_S5_EEE3endEv(ptr noundef nonnull align 8 dereferenceable(48) %this) #5 comdat align 2 {
entry:
  %retval = alloca %"struct.std::_Rb_tree_const_iterator.154", align 8
  %this.addr = alloca ptr, align 8
  store ptr %this, ptr %this.addr, align 8
  %this1 = load ptr, ptr %this.addr, align 8
  %_M_t = getelementptr inbounds %"class.std::map.79", ptr %this1, i32 0, i32 0
  %call = call ptr @_ZNKSt8_Rb_treeIPN9grpc_core9XdsClient24ResourceWatcherInterfaceESt4pairIKS3_NS0_13RefCountedPtrIS2_EEESt10_Select1stIS8_ESt4lessIS3_ESaIS8_EE3endEv(ptr noundef nonnull align 8 dereferenceable(48) %_M_t) #3
  %coerce.dive = getelementptr inbounds %"struct.std::_Rb_tree_const_iterator.154", ptr %retval, i32 0, i32 0
  store ptr %call, ptr %coerce.dive, align 8
  %coerce.dive2 = getelementptr inbounds %"struct.std::_Rb_tree_const_iterator.154", ptr %retval, i32 0, i32 0
  %0 = load ptr, ptr %coerce.dive2, align 8
  ret ptr %0
}

; Function Attrs: mustprogress nounwind uwtable
define linkonce_odr ptr @_ZNKSt3mapIPN9grpc_core9XdsClient24ResourceWatcherInterfaceENS0_13RefCountedPtrIS2_EESt4lessIS3_ESaISt4pairIKS3_S5_EEE5beginEv(ptr noundef nonnull align 8 dereferenceable(48) %this) #5 comdat align 2 {
entry:
  %retval = alloca %"struct.std::_Rb_tree_const_iterator.154", align 8
  %this.addr = alloca ptr, align 8
  store ptr %this, ptr %this.addr, align 8
  %this1 = load ptr, ptr %this.addr, align 8
  %_M_t = getelementptr inbounds %"class.std::map.79", ptr %this1, i32 0, i32 0
  %call = call ptr @_ZNKSt8_Rb_treeIPN9grpc_core9XdsClient24ResourceWatcherInterfaceESt4pairIKS3_NS0_13RefCountedPtrIS2_EEESt10_Select1stIS8_ESt4lessIS3_ESaIS8_EE5beginEv(ptr noundef nonnull align 8 dereferenceable(48) %_M_t) #3
  %coerce.dive = getelementptr inbounds %"struct.std::_Rb_tree_const_iterator.154", ptr %retval, i32 0, i32 0
  store ptr %call, ptr %coerce.dive, align 8
  %coerce.dive2 = getelementptr inbounds %"struct.std::_Rb_tree_const_iterator.154", ptr %retval, i32 0, i32 0
  %0 = load ptr, ptr %coerce.dive2, align 8
  ret ptr %0
}

; Function Attrs: mustprogress uwtable
define internal void @"_ZZN9grpc_core9XdsClient36NotifyWatchersOnResourceDoesNotExistERKSt3mapIPNS0_24ResourceWatcherInterfaceENS_13RefCountedPtrIS2_EESt4lessIS3_ESaISt4pairIKS3_S5_EEEENK3$_0clEv"(ptr noundef nonnull align 8 dereferenceable(48) %this) #4 align 2 {
entry:
  %this.addr = alloca ptr, align 8
  %__range2 = alloca ptr, align 8
  %__begin2 = alloca %"struct.std::_Rb_tree_const_iterator.154", align 8
  %__end2 = alloca %"struct.std::_Rb_tree_const_iterator.154", align 8
  %p = alloca ptr, align 8
  store ptr %this, ptr %this.addr, align 8
  %this1 = load ptr, ptr %this.addr, align 8
  %0 = getelementptr inbounds %class.anon.377, ptr %this1, i32 0, i32 0
  store ptr %0, ptr %__range2, align 8
  %1 = load ptr, ptr %__range2, align 8
  %call = call ptr @_ZNKSt3mapIPN9grpc_core9XdsClient24ResourceWatcherInterfaceENS0_13RefCountedPtrIS2_EESt4lessIS3_ESaISt4pairIKS3_S5_EEE5beginEv(ptr noundef nonnull align 8 dereferenceable(48) %1) #3
  %coerce.dive = getelementptr inbounds %"struct.std::_Rb_tree_const_iterator.154", ptr %__begin2, i32 0, i32 0
  store ptr %call, ptr %coerce.dive, align 8
  %2 = load ptr, ptr %__range2, align 8
  %call2 = call ptr @_ZNKSt3mapIPN9grpc_core9XdsClient24ResourceWatcherInterfaceENS0_13RefCountedPtrIS2_EESt4lessIS3_ESaISt4pairIKS3_S5_EEE3endEv(ptr noundef nonnull align 8 dereferenceable(48) %2) #3
  %coerce.dive3 = getelementptr inbounds %"struct.std::_Rb_tree_const_iterator.154", ptr %__end2, i32 0, i32 0
  store ptr %call2, ptr %coerce.dive3, align 8
  br label %for.cond

for.cond:                                         ; preds = %for.inc, %entry
  %call4 = call noundef zeroext i1 @_ZStneRKSt23_Rb_tree_const_iteratorISt4pairIKPN9grpc_core9XdsClient24ResourceWatcherInterfaceENS1_13RefCountedPtrIS3_EEEESB_(ptr noundef nonnull align 8 dereferenceable(8) %__begin2, ptr noundef nonnull align 8 dereferenceable(8) %__end2) #3
  br i1 %call4, label %for.body, label %for.end

for.body:                                         ; preds = %for.cond
  %call5 = call noundef nonnull align 8 dereferenceable(16) ptr @_ZNKSt23_Rb_tree_const_iteratorISt4pairIKPN9grpc_core9XdsClient24ResourceWatcherInterfaceENS1_13RefCountedPtrIS3_EEEEdeEv(ptr noundef nonnull align 8 dereferenceable(8) %__begin2) #3
  store ptr %call5, ptr %p, align 8
  %3 = load ptr, ptr %p, align 8
  %first = getelementptr inbounds %"struct.std::pair.155", ptr %3, i32 0, i32 0
  %4 = load ptr, ptr %first, align 8
  %vtable = load ptr, ptr %4, align 8
  %vfn = getelementptr inbounds ptr, ptr %vtable, i64 4
  %5 = load ptr, ptr %vfn, align 8
  call void %5(ptr noundef nonnull align 8 dereferenceable(16) %4)
  br label %for.inc

for.inc:                                          ; preds = %for.body
  %call6 = call noundef nonnull align 8 dereferenceable(8) ptr @_ZNSt23_Rb_tree_const_iteratorISt4pairIKPN9grpc_core9XdsClient24ResourceWatcherInterfaceENS1_13RefCountedPtrIS3_EEEEppEv(ptr noundef nonnull align 8 dereferenceable(8) %__begin2) #3
  br label %for.cond

for.end:                                          ; preds = %for.cond
  ret void
}

; Function Attrs: mustprogress nounwind uwtable
define linkonce_odr noundef ptr @_ZNKSt9_Any_data9_M_accessEv(ptr noundef nonnull align 8 dereferenceable(16) %this) #5 comdat align 2 {
entry:
  %this.addr = alloca ptr, align 8
  store ptr %this, ptr %this.addr, align 8
  %this1 = load ptr, ptr %this.addr, align 8
  %arrayidx = getelementptr inbounds [16 x i8], ptr %this1, i64 0, i64 0
  ret ptr %arrayidx
}

; Function Attrs: mustprogress uwtable
define internal void @"_ZSt13__invoke_implIvRZN9grpc_core9XdsClient36NotifyWatchersOnResourceDoesNotExistERKSt3mapIPNS1_24ResourceWatcherInterfaceENS0_13RefCountedPtrIS3_EESt4lessIS4_ESaISt4pairIKS4_S6_EEEE3$_0JEET_St14__invoke_otherOT0_DpOT1_"(ptr noundef nonnull align 8 dereferenceable(48) %__f) #4 {
entry:
  %__f.addr = alloca ptr, align 8
  store ptr %__f, ptr %__f.addr, align 8
  %0 = load ptr, ptr %__f.addr, align 8
  call void @"_ZZN9grpc_core9XdsClient36NotifyWatchersOnResourceDoesNotExistERKSt3mapIPNS0_24ResourceWatcherInterfaceENS_13RefCountedPtrIS2_EESt4lessIS3_ESaISt4pairIKS3_S5_EEEENK3$_0clEv"(ptr noundef nonnull align 8 dereferenceable(48) %0)
  ret void
}

; Function Attrs: mustprogress nounwind uwtable
define internal noundef nonnull align 8 dereferenceable(8) ptr @"_ZNKSt9_Any_data9_M_accessIPZN9grpc_core9XdsClient36NotifyWatchersOnResourceDoesNotExistERKSt3mapIPNS2_24ResourceWatcherInterfaceENS1_13RefCountedPtrIS4_EESt4lessIS5_ESaISt4pairIKS5_S7_EEEE3$_0EERKT_v"(ptr noundef nonnull align 8 dereferenceable(16) %this) #5 align 2 {
entry:
  %this.addr = alloca ptr, align 8
  store ptr %this, ptr %this.addr, align 8
  %this1 = load ptr, ptr %this.addr, align 8
  %call = call noundef ptr @_ZNKSt9_Any_data9_M_accessEv(ptr noundef nonnull align 8 dereferenceable(16) %this1) #3
  ret ptr %call
}

; Function Attrs: mustprogress uwtable
define internal void @"_ZSt10__invoke_rIvRZN9grpc_core9XdsClient36NotifyWatchersOnResourceDoesNotExistERKSt3mapIPNS1_24ResourceWatcherInterfaceENS0_13RefCountedPtrIS3_EESt4lessIS4_ESaISt4pairIKS4_S6_EEEE3$_0JEENSt9enable_ifIX16is_invocable_r_vIT_T0_DpT1_EESJ_E4typeEOSK_DpOSL_"(ptr noundef nonnull align 8 dereferenceable(48) %__fn) #4 {
entry:
  %__fn.addr = alloca ptr, align 8
  store ptr %__fn, ptr %__fn.addr, align 8
  %0 = load ptr, ptr %__fn.addr, align 8
  call void @"_ZSt13__invoke_implIvRZN9grpc_core9XdsClient36NotifyWatchersOnResourceDoesNotExistERKSt3mapIPNS1_24ResourceWatcherInterfaceENS0_13RefCountedPtrIS3_EESt4lessIS4_ESaISt4pairIKS4_S6_EEEE3$_0JEET_St14__invoke_otherOT0_DpOT1_"(ptr noundef nonnull align 8 dereferenceable(48) %0)
  ret void
}

; Function Attrs: mustprogress nounwind uwtable
define internal noundef ptr @"_ZNSt14_Function_base13_Base_managerIZN9grpc_core9XdsClient36NotifyWatchersOnResourceDoesNotExistERKSt3mapIPNS2_24ResourceWatcherInterfaceENS1_13RefCountedPtrIS4_EESt4lessIS5_ESaISt4pairIKS5_S7_EEEE3$_0E14_M_get_pointerERKSt9_Any_data"(ptr noundef nonnull align 8 dereferenceable(16) %__source) #5 align 2 {
entry:
  %__source.addr = alloca ptr, align 8
  store ptr %__source, ptr %__source.addr, align 8
  %0 = load ptr, ptr %__source.addr, align 8
  %call = call noundef nonnull align 8 dereferenceable(8) ptr @"_ZNKSt9_Any_data9_M_accessIPZN9grpc_core9XdsClient36NotifyWatchersOnResourceDoesNotExistERKSt3mapIPNS2_24ResourceWatcherInterfaceENS1_13RefCountedPtrIS4_EESt4lessIS5_ESaISt4pairIKS5_S7_EEEE3$_0EERKT_v"(ptr noundef nonnull align 8 dereferenceable(16) %0) #3
  %1 = load ptr, ptr %call, align 8
  ret ptr %1
}

; Function Attrs: mustprogress uwtable
define internal void @"_ZNSt17_Function_handlerIFvvEZN9grpc_core9XdsClient36NotifyWatchersOnResourceDoesNotExistERKSt3mapIPNS2_24ResourceWatcherInterfaceENS1_13RefCountedPtrIS4_EESt4lessIS5_ESaISt4pairIKS5_S7_EEEE3$_0E9_M_invokeERKSt9_Any_data"(ptr noundef nonnull align 8 dereferenceable(16) %__functor) #4 align 2 {
entry:
  %__functor.addr = alloca ptr, align 8
  store ptr %__functor, ptr %__functor.addr, align 8
  %0 = load ptr, ptr %__functor.addr, align 8
  %call = call noundef ptr @"_ZNSt14_Function_base13_Base_managerIZN9grpc_core9XdsClient36NotifyWatchersOnResourceDoesNotExistERKSt3mapIPNS2_24ResourceWatcherInterfaceENS1_13RefCountedPtrIS4_EESt4lessIS5_ESaISt4pairIKS5_S7_EEEE3$_0E14_M_get_pointerERKSt9_Any_data"(ptr noundef nonnull align 8 dereferenceable(16) %0) #3
  call void @"_ZSt10__invoke_rIvRZN9grpc_core9XdsClient36NotifyWatchersOnResourceDoesNotExistERKSt3mapIPNS1_24ResourceWatcherInterfaceENS0_13RefCountedPtrIS3_EESt4lessIS4_ESaISt4pairIKS4_S6_EEEE3$_0JEENSt9enable_ifIX16is_invocable_r_vIT_T0_DpT1_EESJ_E4typeEOSK_DpOSL_"(ptr noundef nonnull align 8 dereferenceable(48) %call)
  ret void
}