; Function Attrs: mustprogress uwtable
define internal void @"_ZNSt17_Function_handlerIFvvEZN9grpc_core9XdsClient36NotifyWatchersOnResourceDoesNotExistERKSt3mapIPNS2_24ResourceWatcherInterfaceENS1_13RefCountedPtrIS4_EESt4lessIS5_ESaISt4pairIKS5_S7_EEEE3$_0E9_M_invokeERKSt9_Any_data"(ptr nocapture noundef nonnull readonly align 8 dereferenceable(16) %__functor) #3 align 2 personality ptr @__gxx_personality_v0 {
entry:
  %__functor.val = load ptr, ptr %__functor, align 8
  %_M_left.i.i.i.i.i = getelementptr inbounds i8, ptr %__functor.val, i64 24
  %0 = load ptr, ptr %_M_left.i.i.i.i.i, align 8
  %add.ptr.i.i.i.i.i = getelementptr inbounds i8, ptr %__functor.val, i64 8
  %cmp.i.not4.i.i.i = icmp eq ptr %0, %add.ptr.i.i.i.i.i
  br i1 %cmp.i.not4.i.i.i, label %"_ZSt10__invoke_rIvRZN9grpc_core9XdsClient36NotifyWatchersOnResourceDoesNotExistERKSt3mapIPNS1_24ResourceWatcherInterfaceENS0_13RefCountedPtrIS3_EESt4lessIS4_ESaISt4pairIKS4_S6_EEEE3$_0JEENSt9enable_ifIX16is_invocable_r_vIT_T0_DpT1_EESJ_E4typeEOSK_DpOSL_.exit", label %for.body.i.i.i

for.body.i.i.i:                                   ; preds = %entry, %for.body.i.i.i
  %__begin2.sroa.0.05.i.i.i = phi ptr [ %call.i.i.i.i, %for.body.i.i.i ], [ %0, %entry ]
  %_M_storage.i.i.i.i.i = getelementptr inbounds i8, ptr %__begin2.sroa.0.05.i.i.i, i64 32
  %1 = load ptr, ptr %_M_storage.i.i.i.i.i, align 8
  %vtable.i.i.i = load ptr, ptr %1, align 8
  %vfn.i.i.i = getelementptr inbounds i8, ptr %vtable.i.i.i, i64 32
  %2 = load ptr, ptr %vfn.i.i.i, align 8
  tail call void %2(ptr noundef nonnull align 8 dereferenceable(16) %1)
  %call.i.i.i.i = tail call noundef ptr @_ZSt18_Rb_tree_incrementPKSt18_Rb_tree_node_base(ptr noundef %__begin2.sroa.0.05.i.i.i) #29
  %cmp.i.not.i.i.i = icmp eq ptr %call.i.i.i.i, %add.ptr.i.i.i.i.i
  br i1 %cmp.i.not.i.i.i, label %"_ZSt10__invoke_rIvRZN9grpc_core9XdsClient36NotifyWatchersOnResourceDoesNotExistERKSt3mapIPNS1_24ResourceWatcherInterfaceENS0_13RefCountedPtrIS3_EESt4lessIS4_ESaISt4pairIKS4_S6_EEEE3$_0JEENSt9enable_ifIX16is_invocable_r_vIT_T0_DpT1_EESJ_E4typeEOSK_DpOSL_.exit", label %for.body.i.i.i

"_ZSt10__invoke_rIvRZN9grpc_core9XdsClient36NotifyWatchersOnResourceDoesNotExistERKSt3mapIPNS1_24ResourceWatcherInterfaceENS0_13RefCountedPtrIS3_EESt4lessIS4_ESaISt4pairIKS4_S6_EEEE3$_0JEENSt9enable_ifIX16is_invocable_r_vIT_T0_DpT1_EESJ_E4typeEOSK_DpOSL_.exit": ; preds = %for.body.i.i.i, %entry
  ret void
}